; Function Attrs: null_pointer_is_valid sspstrong uwtable
define internal void @dcerpc_decode_as_free(ptr noundef %0) #0 {
  %.not = icmp eq ptr %0, null
  br i1 %.not, label %26, label %2

2:                                                ; preds = %1
  %3 = load i32, ptr %0, align 8
  %.not.i.i.i = icmp eq i32 %3, 0
  br i1 %.not.i.i.i, label %free_address.exit.i, label %4

4:                                                ; preds = %2
  %5 = getelementptr inbounds nuw i8, ptr %0, i64 4
  %6 = load i32, ptr %5, align 4
  %7 = icmp sgt i32 %6, 0
  br i1 %7, label %8, label %free_address.exit.i

8:                                                ; preds = %4
  %9 = getelementptr inbounds nuw i8, ptr %0, i64 16
  %10 = load ptr, ptr %9, align 8
  %.not6.i.i.i = icmp eq ptr %10, null
  br i1 %.not6.i.i.i, label %free_address.exit.i, label %11

11:                                               ; preds = %8
  tail call void @wmem_free(ptr noundef null, ptr noundef nonnull %10)
  br label %free_address.exit.i

free_address.exit.i:                              ; preds = %11, %8, %4, %2
  tail call void @llvm.memset.p0.i64(ptr noundef nonnull align 8 dereferenceable(24) %0, i8 0, i64 24, i1 false)
  %12 = getelementptr inbounds nuw i8, ptr %0, i64 24
  %13 = load i32, ptr %12, align 8
  %.not.i.i6.i = icmp eq i32 %13, 0
  br i1 %.not.i.i6.i, label %free_address.exit8.i, label %14

14:                                               ; preds = %free_address.exit.i
  %15 = getelementptr inbounds nuw i8, ptr %0, i64 28
  %16 = load i32, ptr %15, align 4
  %17 = icmp sgt i32 %16, 0
  br i1 %17, label %18, label %free_address.exit8.i

18:                                               ; preds = %14
  %19 = getelementptr inbounds nuw i8, ptr %0, i64 40
  %20 = load ptr, ptr %19, align 8
  %.not6.i.i7.i = icmp eq ptr %20, null
  br i1 %.not6.i.i7.i, label %free_address.exit8.i, label %21

21:                                               ; preds = %18
  tail call void @wmem_free(ptr noundef null, ptr noundef nonnull %20)
  br label %free_address.exit8.i

free_address.exit8.i:                             ; preds = %21, %18, %14, %free_address.exit.i
  tail call void @llvm.memset.p0.i64(ptr noundef nonnull align 8 dereferenceable(24) %12, i8 0, i64 24, i1 false)
  %22 = getelementptr inbounds nuw i8, ptr %0, i64 72
  %23 = load ptr, ptr %22, align 8
  %.not.i = icmp eq ptr %23, null
  br i1 %.not.i, label %decode_dcerpc_binding_free.exit, label %24

24:                                               ; preds = %free_address.exit8.i
  %25 = tail call ptr @g_string_free(ptr noundef nonnull %23, i32 noundef 1)
  br label %decode_dcerpc_binding_free.exit

decode_dcerpc_binding_free.exit:                  ; preds = %free_address.exit8.i, %24
  tail call void @g_free(ptr noundef nonnull %0)
  br label %26

26:                                               ; preds = %decode_dcerpc_binding_free.exit, %1
  ret void
}